target datalayout = "e-m:e-p270:32:32-p271:32:32-p272:64:64-i64:64-i128:128-f80:128-n8:16:32:64-S128"
target triple = "x86_64-pc-linux-gnu"

%struct._GC_arrays = type { i64, i64, i64, ptr, i64, i64, i64, i64, i64, i64, i64, i64, i64, i64, ptr, ptr, ptr, ptr, ptr, ptr, ptr, ptr, i32, i32, i32, i64, i64, i64, i64, i64, ptr, ptr, ptr, i64, i64, i32, i64, i64, ptr, i64, %struct.dl_hashtbl_s, %struct.dl_hashtbl_s, %struct.fnlz_roots_s, i32, ptr, i64, i64, i32, i32, i64, i64, i64, ptr, [64 x ptr], [8 x i8], [64 x ptr], [129 x ptr], [129 x ptr], [129 x ptr], [129 x ptr], [2049 x i64], [129 x ptr], [4096 x i8], [4096 x i64], [4096 x i64], ptr, [2048 x %struct.roots], [512 x %struct.exclusion], [2048 x ptr] }
%struct.dl_hashtbl_s = type { ptr, i64, i32 }
%struct.fnlz_roots_s = type { ptr, ptr }
%struct.roots = type { ptr, ptr, ptr, i32 }
%struct.exclusion = type { ptr, ptr }
%struct.bi = type { [1024 x ptr], ptr, ptr, i64, ptr }
%struct.hblkhdr = type { ptr, ptr, ptr, i8, i8, i16, i64, i64, ptr, i64, %union.anon }
%union.anon = type { i64, [256 x i8] }

@GC_arrays = global %struct._GC_arrays zeroinitializer, align 8

; Function Attrs: nounwind uwtable
define void @GC_apply_to_all_blocks(ptr noundef nonnull %0, i64 noundef %1) #0 {
  %3 = alloca ptr, align 8
  %4 = alloca i64, align 8
  %5 = alloca i64, align 8
  %6 = alloca ptr, align 8
  store ptr %0, ptr %3, align 8
  store i64 %1, ptr %4, align 8
  %7 = getelementptr inbounds %struct._GC_arrays, ptr @GC_arrays, i32 0, i32 14
  %8 = load ptr, ptr %7, align 8
  store ptr %8, ptr %6, align 8
  br label %9

9:                                                ; preds = %71, %2
  %10 = load ptr, ptr %6, align 8
  %11 = icmp ne ptr %10, null
  br i1 %11, label %12, label %75

12:                                               ; preds = %9
  store i64 1023, ptr %5, align 8
  br label %13

13:                                               ; preds = %69, %12
  %14 = load i64, ptr %5, align 8
  %15 = icmp sge i64 %14, 0
  br i1 %15, label %16, label %70

16:                                               ; preds = %13
  %17 = load ptr, ptr %6, align 8
  %18 = getelementptr inbounds %struct.bi, ptr %17, i32 0, i32 0
  %19 = load i64, ptr %5, align 8
  %20 = getelementptr inbounds [1024 x ptr], ptr %18, i64 0, i64 %19
  %21 = load ptr, ptr %20, align 8
  %22 = ptrtoint ptr %21 to i64
  %23 = icmp ule i64 %22, 4095
  br i1 %23, label %49, label %24

24:                                               ; preds = %16
  %25 = load ptr, ptr %6, align 8
  %26 = getelementptr inbounds %struct.bi, ptr %25, i32 0, i32 0
  %27 = load i64, ptr %5, align 8
  %28 = getelementptr inbounds [1024 x ptr], ptr %26, i64 0, i64 %27
  %29 = load ptr, ptr %28, align 8
  %30 = getelementptr inbounds %struct.hblkhdr, ptr %29, i32 0, i32 4
  %31 = load i8, ptr %30, align 1
  %32 = zext i8 %31 to i32
  %33 = and i32 %32, 4
  %34 = icmp ne i32 %33, 0
  br i1 %34, label %46, label %35

35:                                               ; preds = %24
  %36 = load ptr, ptr %3, align 8
  %37 = load ptr, ptr %6, align 8
  %38 = getelementptr inbounds %struct.bi, ptr %37, i32 0, i32 3
  %39 = load i64, ptr %38, align 8
  %40 = shl i64 %39, 10
  %41 = load i64, ptr %5, align 8
  %42 = add i64 %40, %41
  %43 = shl i64 %42, 12
  %44 = inttoptr i64 %43 to ptr
  %45 = load i64, ptr %4, align 8
  call void %36(ptr noundef %44, i64 noundef %45)
  br label %46

46:                                               ; preds = %35, %24
  %47 = load i64, ptr %5, align 8
  %48 = add nsw i64 %47, -1
  store i64 %48, ptr %5, align 8
  br label %69

49:                                               ; preds = %16
  %50 = load ptr, ptr %6, align 8
  %51 = getelementptr inbounds %struct.bi, ptr %50, i32 0, i32 0
  %52 = load i64, ptr %5, align 8
  %53 = getelementptr inbounds [1024 x ptr], ptr %51, i64 0, i64 %52
  %54 = load ptr, ptr %53, align 8
  %55 = icmp eq ptr %54, null
  br i1 %55, label %56, label %59

56:                                               ; preds = %49
  %57 = load i64, ptr %5, align 8
  %58 = add nsw i64 %57, -1
  store i64 %58, ptr %5, align 8
  br label %68

59:                                               ; preds = %49
  %60 = load ptr, ptr %6, align 8
  %61 = getelementptr inbounds %struct.bi, ptr %60, i32 0, i32 0
  %62 = load i64, ptr %5, align 8
  %63 = getelementptr inbounds [1024 x ptr], ptr %61, i64 0, i64 %62
  %64 = load ptr, ptr %63, align 8
  %65 = ptrtoint ptr %64 to i64
  %66 = load i64, ptr %5, align 8
  %67 = sub nsw i64 %66, %65
  store i64 %67, ptr %5, align 8
  br label %68

68:                                               ; preds = %59, %56
  br label %69

69:                                               ; preds = %68, %46
  br label %13, !llvm.loop !6

70:                                               ; preds = %13
  br label %71

71:                                               ; preds = %70
  %72 = load ptr, ptr %6, align 8
  %73 = getelementptr inbounds %struct.bi, ptr %72, i32 0, i32 1
  %74 = load ptr, ptr %73, align 8
  store ptr %74, ptr %6, align 8
  br label %9, !llvm.loop !8

75:                                               ; preds = %9
  ret void
}