; Function Attrs: nounwind uwtable
define void @GC_apply_to_all_blocks(ptr noundef nonnull readonly captures(none) %0, i64 noundef %1) local_unnamed_addr #1 {
  %.021 = load ptr, ptr getelementptr inbounds nuw (i8, ptr @GC_arrays, i64 112), align 8
  %.not22 = icmp eq ptr %.021, null
  br i1 %.not22, label %._crit_edge, label %.preheader

.preheader:                                       ; preds = %2, %29
  %.023 = phi ptr [ %.0, %29 ], [ %.021, %2 ]
  %3 = getelementptr inbounds nuw i8, ptr %.023, i64 8208
  br label %4

4:                                                ; preds = %.preheader, %27
  %.01720 = phi i64 [ 1023, %.preheader ], [ %.1, %27 ]
  %5 = getelementptr inbounds nuw [1024 x ptr], ptr %.023, i64 0, i64 %.01720
  %6 = load ptr, ptr %5, align 8
  %7 = ptrtoint ptr %6 to i64
  %8 = icmp ult ptr %6, inttoptr (i64 4096 to ptr)
  br i1 %8, label %21, label %9

9:                                                ; preds = %4
  %10 = getelementptr inbounds nuw i8, ptr %6, i64 25
  %11 = load i8, ptr %10, align 1
  %12 = and i8 %11, 4
  %.not19 = icmp eq i8 %12, 0
  br i1 %.not19, label %13, label %19

13:                                               ; preds = %9
  %14 = load i64, ptr %3, align 8
  %15 = shl i64 %14, 22
  %16 = shl i64 %.01720, 12
  %17 = add i64 %15, %16
  %18 = inttoptr i64 %17 to ptr
  tail call void %0(ptr noundef %18, i64 noundef %1) #41
  br label %19

19:                                               ; preds = %13, %9
  %20 = add nsw i64 %.01720, -1
  br label %27

21:                                               ; preds = %4
  %22 = icmp eq ptr %6, null
  br i1 %22, label %23, label %25

23:                                               ; preds = %21
  %24 = add nsw i64 %.01720, -1
  br label %27

25:                                               ; preds = %21
  %26 = sub nsw i64 %.01720, %7
  br label %27

27:                                               ; preds = %23, %25, %19
  %.1 = phi i64 [ %24, %23 ], [ %26, %25 ], [ %20, %19 ]
  %28 = icmp sgt i64 %.1, -1
  br i1 %28, label %4, label %29, !llvm.loop !17

29:                                               ; preds = %27
  %30 = getelementptr inbounds nuw i8, ptr %.023, i64 8192
  %.0 = load ptr, ptr %30, align 8
  %.not = icmp eq ptr %.0, null
  br i1 %.not, label %._crit_edge, label %.preheader, !llvm.loop !18

._crit_edge:                                      ; preds = %29, %2
  ret void
}